target datalayout = "e-m:e-p270:32:32-p271:32:32-p272:64:64-i64:64-i128:128-f80:128-n8:16:32:64-S128"
target triple = "x86_64-pc-linux-gnu"

%struct.pg_enc2name = type { ptr, i32 }
%struct.pg_wchar_tbl = type { ptr, ptr, ptr, ptr, ptr, ptr, i32 }

@ClientEncoding = internal global ptr @pg_enc2name_tbl, align 8
@DatabaseEncoding = internal global ptr @pg_enc2name_tbl, align 8
@pg_wchar_table = external constant [0 x %struct.pg_wchar_tbl], align 8

; Function Attrs: nounwind uwtable
define dso_local zeroext i1 @pg_verify_mbstr(i32 noundef %0, ptr noundef %1, i32 noundef %2, i1 noundef zeroext %3) #1 {
  %5 = alloca i1, align 1
  %6 = alloca i32, align 4
  %7 = alloca ptr, align 8
  %8 = alloca i32, align 4
  %9 = alloca i8, align 1
  %10 = alloca i32, align 4
  %11 = alloca i32, align 4
  store i32 %0, ptr %6, align 4
  store ptr %1, ptr %7, align 8
  store i32 %2, ptr %8, align 4
  %12 = zext i1 %3 to i8
  store i8 %12, ptr %9, align 1
  call void @llvm.lifetime.start.p0(i64 4, ptr %10) #9
  %13 = load i32, ptr %6, align 4
  %14 = sext i32 %13 to i64
  %15 = getelementptr inbounds [0 x %struct.pg_wchar_tbl], ptr @pg_wchar_table, i64 0, i64 %14
  %16 = getelementptr inbounds nuw %struct.pg_wchar_tbl, ptr %15, i32 0, i32 5
  %17 = load ptr, ptr %16, align 8
  %18 = load ptr, ptr %7, align 8
  %19 = load i32, ptr %8, align 4
  %20 = call i32 %17(ptr noundef %18, i32 noundef %19)
  store i32 %20, ptr %10, align 4
  %21 = load i32, ptr %10, align 4
  %22 = load i32, ptr %8, align 4
  %23 = icmp ne i32 %21, %22
  br i1 %23, label %24, label %37

24:                                               ; preds = %4
  %25 = load i8, ptr %9, align 1, !range !4, !noundef !5
  %26 = trunc i8 %25 to i1
  br i1 %26, label %27, label %28

27:                                               ; preds = %24
  store i1 false, ptr %5, align 1
  store i32 1, ptr %11, align 4
  br label %38

28:                                               ; preds = %24
  %29 = load i32, ptr %6, align 4
  %30 = load ptr, ptr %7, align 8
  %31 = load i32, ptr %10, align 4
  %32 = sext i32 %31 to i64
  %33 = getelementptr inbounds i8, ptr %30, i64 %32
  %34 = load i32, ptr %8, align 4
  %35 = load i32, ptr %10, align 4
  %36 = sub i32 %34, %35
  call void @report_invalid_encoding(i32 noundef %29, ptr noundef %33, i32 noundef %36) #12
  unreachable

37:                                               ; preds = %4
  store i1 true, ptr %5, align 1
  store i32 1, ptr %11, align 4
  br label %38

38:                                               ; preds = %37, %27
  call void @llvm.lifetime.end.p0(i64 4, ptr %10) #9
  %39 = load i1, ptr %5, align 1
  ret i1 %39
}

; Function Attrs: nounwind uwtable
define dso_local ptr @pg_server_to_any(ptr noundef %0, i32 noundef %1, i32 noundef %2) #1 {
  %4 = alloca ptr, align 8
  %5 = alloca ptr, align 8
  %6 = alloca i32, align 4
  %7 = alloca i32, align 4
  %8 = alloca i32, align 4
  %9 = alloca i32, align 4
  %10 = alloca i32, align 4
  %11 = alloca i32, align 4
  store ptr %0, ptr %5, align 8
  store i32 %1, ptr %6, align 4
  store i32 %2, ptr %7, align 4
  %12 = load i32, ptr %6, align 4
  %13 = icmp sle i32 %12, 0
  br i1 %13, label %14, label %18

14:                                               ; preds = %3
  br label %15

15:                                               ; preds = %14
  br label %16

16:                                               ; preds = %15
  store i32 1, ptr %8, align 4
  %17 = load ptr, ptr %5, align 8
  store ptr %17, ptr %4, align 8
  br label %64

18:                                               ; preds = %3
  %19 = load i32, ptr %7, align 4
  %20 = load ptr, ptr @DatabaseEncoding, align 8
  %21 = getelementptr inbounds nuw %struct.pg_enc2name, ptr %20, i32 0, i32 1
  %22 = load i32, ptr %21, align 8
  %23 = icmp eq i32 %19, %22
  br i1 %23, label %27, label %24

24:                                               ; preds = %18
  %25 = load i32, ptr %7, align 4
  %26 = icmp eq i32 %25, 0
  br i1 %26, label %27, label %31

27:                                               ; preds = %24, %18
  br label %28

28:                                               ; preds = %27
  br label %29

29:                                               ; preds = %28
  store i32 1, ptr %9, align 4
  %30 = load ptr, ptr %5, align 8
  store ptr %30, ptr %4, align 8
  br label %64

31:                                               ; preds = %24
  %32 = load ptr, ptr @DatabaseEncoding, align 8
  %33 = getelementptr inbounds nuw %struct.pg_enc2name, ptr %32, i32 0, i32 1
  %34 = load i32, ptr %33, align 8
  %35 = icmp eq i32 %34, 0
  br i1 %35, label %36, label %44

36:                                               ; preds = %31
  %37 = load i32, ptr %7, align 4
  %38 = load ptr, ptr %5, align 8
  %39 = load i32, ptr %6, align 4
  %40 = call zeroext i1 @pg_verify_mbstr(i32 noundef %37, ptr noundef %38, i32 noundef %39, i1 noundef zeroext false)
  br label %41

41:                                               ; preds = %36
  br label %42

42:                                               ; preds = %41
  store i32 1, ptr %10, align 4
  %43 = load ptr, ptr %5, align 8
  store ptr %43, ptr %4, align 8
  br label %64

44:                                               ; preds = %31
  %45 = load i32, ptr %7, align 4
  %46 = load ptr, ptr @ClientEncoding, align 8
  %47 = getelementptr inbounds nuw %struct.pg_enc2name, ptr %46, i32 0, i32 1
  %48 = load i32, ptr %47, align 8
  %49 = icmp eq i32 %45, %48
  br i1 %49, label %50, label %54

50:                                               ; preds = %44
  %51 = load ptr, ptr %5, align 8
  %52 = load i32, ptr %6, align 4
  %53 = call ptr @perform_default_encoding_conversion(ptr noundef %51, i32 noundef %52, i1 noundef zeroext false)
  store ptr %53, ptr %4, align 8
  br label %64

54:                                               ; preds = %44
  br label %55

55:                                               ; preds = %54
  br label %56

56:                                               ; preds = %55
  store i32 1, ptr %11, align 4
  %57 = load ptr, ptr %5, align 8
  %58 = load i32, ptr %6, align 4
  %59 = load ptr, ptr @DatabaseEncoding, align 8
  %60 = getelementptr inbounds nuw %struct.pg_enc2name, ptr %59, i32 0, i32 1
  %61 = load i32, ptr %60, align 8
  %62 = load i32, ptr %7, align 4
  %63 = call ptr @pg_do_encoding_conversion(ptr noundef %57, i32 noundef %58, i32 noundef %61, i32 noundef %62)
  store ptr %63, ptr %4, align 8
  br label %64

64:                                               ; preds = %56, %50, %42, %29, %16
  %65 = load ptr, ptr %4, align 8
  ret ptr %65
}