; Function Attrs: nounwind uwtable
define dso_local ptr @pg_server_to_any(ptr noundef %0, i32 noundef %1, i32 noundef %2) local_unnamed_addr #0 {
  %4 = icmp slt i32 %1, 1
  br i1 %4, label %pg_verify_mbstr.exit, label %5

5:                                                ; preds = %3
  %6 = load ptr, ptr @DatabaseEncoding, align 8
  %7 = getelementptr inbounds nuw i8, ptr %6, i64 8
  %8 = load i32, ptr %7, align 8
  %9 = icmp eq i32 %2, %8
  %10 = icmp eq i32 %2, 0
  %or.cond = or i1 %10, %9
  br i1 %or.cond, label %pg_verify_mbstr.exit, label %11

11:                                               ; preds = %5
  %12 = icmp eq i32 %8, 0
  br i1 %12, label %13, label %22

13:                                               ; preds = %11
  %14 = sext i32 %2 to i64
  %15 = getelementptr inbounds [0 x %struct.pg_wchar_tbl], ptr @pg_wchar_table, i64 0, i64 %14, i32 5
  %16 = load ptr, ptr %15, align 8
  %17 = tail call i32 %16(ptr noundef %0, i32 noundef %1) #13
  %.not.i = icmp eq i32 %17, %1
  br i1 %.not.i, label %pg_verify_mbstr.exit, label %18

18:                                               ; preds = %13
  %19 = sext i32 %17 to i64
  %20 = getelementptr inbounds i8, ptr %0, i64 %19
  %21 = sub i32 %1, %17
  tail call void @report_invalid_encoding(i32 noundef %2, ptr noundef %20, i32 noundef %21) #15
  unreachable

22:                                               ; preds = %11
  %23 = load ptr, ptr @ClientEncoding, align 8
  %24 = getelementptr inbounds nuw i8, ptr %23, i64 8
  %25 = load i32, ptr %24, align 8
  %26 = icmp eq i32 %2, %25
  br i1 %26, label %27, label %29

27:                                               ; preds = %22
  %28 = tail call fastcc ptr @perform_default_encoding_conversion(ptr noundef %0, i32 noundef %1, i1 noundef zeroext false)
  br label %pg_verify_mbstr.exit

29:                                               ; preds = %22
  %30 = tail call ptr @pg_do_encoding_conversion(ptr noundef %0, i32 noundef %1, i32 noundef %8, i32 noundef %2)
  br label %pg_verify_mbstr.exit

pg_verify_mbstr.exit:                             ; preds = %13, %5, %3, %29, %27
  %.0 = phi ptr [ %28, %27 ], [ %30, %29 ], [ %0, %3 ], [ %0, %5 ], [ %0, %13 ]
  ret ptr %.0
}